target datalayout = "e-m:e-p270:32:32-p271:32:32-p272:64:64-i64:64-i128:128-f80:128-n8:16:32:64-S128"
target triple = "x86_64-pc-linux-gnu"

; Function Attrs: mustprogress nounwind uwtable
define hidden noundef i32 @_ZN5zxing6qrcode19FinderPatternFinder18getStateCountTotalEPiRKNS1_15CrossCheckStateE(ptr noundef nonnull align 8 dereferenceable(88) %0, ptr noundef %1, ptr noundef nonnull align 4 dereferenceable(4) %2) #1 align 2 {
  %4 = alloca ptr, align 8
  %5 = alloca ptr, align 8
  %6 = alloca ptr, align 8
  %7 = alloca i32, align 4
  store ptr %0, ptr %4, align 8
  store ptr %1, ptr %5, align 8
  store ptr %2, ptr %6, align 8
  %8 = load ptr, ptr %5, align 8
  %9 = getelementptr inbounds i32, ptr %8, i64 1
  %10 = load i32, ptr %9, align 4
  %11 = load ptr, ptr %5, align 8
  %12 = getelementptr inbounds i32, ptr %11, i64 2
  %13 = load i32, ptr %12, align 4
  %14 = add nsw i32 %10, %13
  %15 = load ptr, ptr %5, align 8
  %16 = getelementptr inbounds i32, ptr %15, i64 3
  %17 = load i32, ptr %16, align 4
  %18 = add nsw i32 %14, %17
  store i32 %18, ptr %7, align 4
  %19 = load ptr, ptr %6, align 8
  %20 = load i32, ptr %19, align 4
  %21 = icmp eq i32 %20, 0
  br i1 %21, label %22, label %32

22:                                               ; preds = %3
  %23 = load i32, ptr %7, align 4
  %24 = load ptr, ptr %5, align 8
  %25 = getelementptr inbounds i32, ptr %24, i64 0
  %26 = load i32, ptr %25, align 4
  %27 = add nsw i32 %23, %26
  %28 = load ptr, ptr %5, align 8
  %29 = getelementptr inbounds i32, ptr %28, i64 4
  %30 = load i32, ptr %29, align 4
  %31 = add nsw i32 %27, %30
  store i32 %31, ptr %7, align 4
  br label %77

32:                                               ; preds = %3
  %33 = load ptr, ptr %6, align 8
  %34 = load i32, ptr %33, align 4
  %35 = icmp eq i32 %34, 1
  br i1 %35, label %36, label %46

36:                                               ; preds = %32
  %37 = load i32, ptr %7, align 4
  %38 = load ptr, ptr %5, align 8
  %39 = getelementptr inbounds i32, ptr %38, i64 1
  %40 = load i32, ptr %39, align 4
  %41 = add nsw i32 %37, %40
  %42 = load ptr, ptr %5, align 8
  %43 = getelementptr inbounds i32, ptr %42, i64 4
  %44 = load i32, ptr %43, align 4
  %45 = add nsw i32 %41, %44
  store i32 %45, ptr %7, align 4
  br label %76

46:                                               ; preds = %32
  %47 = load ptr, ptr %6, align 8
  %48 = load i32, ptr %47, align 4
  %49 = icmp eq i32 %48, 2
  br i1 %49, label %50, label %60

50:                                               ; preds = %46
  %51 = load i32, ptr %7, align 4
  %52 = load ptr, ptr %5, align 8
  %53 = getelementptr inbounds i32, ptr %52, i64 0
  %54 = load i32, ptr %53, align 4
  %55 = add nsw i32 %51, %54
  %56 = load ptr, ptr %5, align 8
  %57 = getelementptr inbounds i32, ptr %56, i64 3
  %58 = load i32, ptr %57, align 4
  %59 = add nsw i32 %55, %58
  store i32 %59, ptr %7, align 4
  br label %75

60:                                               ; preds = %46
  %61 = load ptr, ptr %6, align 8
  %62 = load i32, ptr %61, align 4
  %63 = icmp eq i32 %62, 3
  br i1 %63, label %64, label %74

64:                                               ; preds = %60
  %65 = load i32, ptr %7, align 4
  %66 = load ptr, ptr %5, align 8
  %67 = getelementptr inbounds i32, ptr %66, i64 1
  %68 = load i32, ptr %67, align 4
  %69 = add nsw i32 %65, %68
  %70 = load ptr, ptr %5, align 8
  %71 = getelementptr inbounds i32, ptr %70, i64 3
  %72 = load i32, ptr %71, align 4
  %73 = add nsw i32 %69, %72
  store i32 %73, ptr %7, align 4
  br label %74

74:                                               ; preds = %64, %60
  br label %75

75:                                               ; preds = %74, %50
  br label %76

76:                                               ; preds = %75, %36
  br label %77

77:                                               ; preds = %76, %22
  %78 = load i32, ptr %7, align 4
  ret i32 %78
}