; Function Attrs: mustprogress nofree norecurse nosync nounwind willreturn memory(argmem: read) uwtable
define hidden noundef i32 @_ZN5zxing6qrcode19FinderPatternFinder18getStateCountTotalEPiRKNS1_15CrossCheckStateE(ptr nocapture nonnull readnone align 8 %0, ptr nocapture noundef readonly %1, ptr nocapture noundef nonnull readonly align 4 dereferenceable(4) %2) local_unnamed_addr #9 align 2 {
  %4 = getelementptr inbounds i8, ptr %1, i64 4
  %5 = load i32, ptr %4, align 4
  %6 = getelementptr inbounds i8, ptr %1, i64 8
  %7 = load i32, ptr %6, align 4
  %8 = getelementptr inbounds i8, ptr %1, i64 12
  %9 = load i32, ptr %8, align 4
  %10 = add i32 %9, %5
  %11 = add i32 %10, %7
  %12 = load i32, ptr %2, align 4
  switch i32 %12, label %30 [
    i32 0, label %13
    i32 1, label %19
    i32 2, label %24
    i32 3, label %28
  ]

13:                                               ; preds = %3
  %14 = load i32, ptr %1, align 4
  %15 = add nsw i32 %14, %11
  %16 = getelementptr inbounds i8, ptr %1, i64 16
  %17 = load i32, ptr %16, align 4
  %18 = add nsw i32 %15, %17
  br label %30

19:                                               ; preds = %3
  %20 = add nsw i32 %11, %5
  %21 = getelementptr inbounds i8, ptr %1, i64 16
  %22 = load i32, ptr %21, align 4
  %23 = add nsw i32 %20, %22
  br label %30

24:                                               ; preds = %3
  %25 = load i32, ptr %1, align 4
  %26 = add i32 %11, %9
  %27 = add i32 %26, %25
  br label %30

28:                                               ; preds = %3
  %29 = add i32 %10, %11
  br label %30

30:                                               ; preds = %3, %19, %28, %24, %13
  %.0 = phi i32 [ %18, %13 ], [ %23, %19 ], [ %27, %24 ], [ %29, %28 ], [ %11, %3 ]
  ret i32 %.0
}